target datalayout = "e-m:e-p270:32:32-p271:32:32-p272:64:64-i64:64-i128:128-f80:128-n8:16:32:64-S128"
target triple = "x86_64-pc-linux-gnu"

%struct._JPLISEnvironment = type { ptr, ptr, i8 }

; Function Attrs: nounwind uwtable
define hidden void @eventHandlerClassFileLoadHook(ptr noundef %0, ptr noundef %1, ptr noundef %2, ptr noundef %3, ptr noundef %4, ptr noundef %5, i32 noundef %6, ptr noundef %7, ptr noundef %8, ptr noundef %9) #0 {
  %11 = alloca ptr, align 8
  %12 = alloca ptr, align 8
  %13 = alloca ptr, align 8
  %14 = alloca ptr, align 8
  %15 = alloca ptr, align 8
  %16 = alloca ptr, align 8
  %17 = alloca i32, align 4
  %18 = alloca ptr, align 8
  %19 = alloca ptr, align 8
  %20 = alloca ptr, align 8
  %21 = alloca ptr, align 8
  %22 = alloca ptr, align 8
  store ptr %0, ptr %11, align 8
  store ptr %1, ptr %12, align 8
  store ptr %2, ptr %13, align 8
  store ptr %3, ptr %14, align 8
  store ptr %4, ptr %15, align 8
  store ptr %5, ptr %16, align 8
  store i32 %6, ptr %17, align 4
  store ptr %7, ptr %18, align 8
  store ptr %8, ptr %19, align 8
  store ptr %9, ptr %20, align 8
  store ptr null, ptr %21, align 8
  %23 = load ptr, ptr %11, align 8
  %24 = call ptr @getJPLISEnvironment(ptr noundef %23)
  store ptr %24, ptr %21, align 8
  %25 = load ptr, ptr %21, align 8
  %26 = icmp ne ptr %25, null
  br i1 %26, label %27, label %47

27:                                               ; preds = %10
  %28 = load ptr, ptr %12, align 8
  %29 = call ptr @preserveThrowable(ptr noundef %28)
  store ptr %29, ptr %22, align 8
  %30 = load ptr, ptr %21, align 8
  %31 = getelementptr inbounds %struct._JPLISEnvironment, ptr %30, i32 0, i32 1
  %32 = load ptr, ptr %31, align 8
  %33 = load ptr, ptr %12, align 8
  %34 = load ptr, ptr %14, align 8
  %35 = load ptr, ptr %15, align 8
  %36 = load ptr, ptr %13, align 8
  %37 = load ptr, ptr %16, align 8
  %38 = load i32, ptr %17, align 4
  %39 = load ptr, ptr %18, align 8
  %40 = load ptr, ptr %19, align 8
  %41 = load ptr, ptr %20, align 8
  %42 = load ptr, ptr %21, align 8
  %43 = getelementptr inbounds %struct._JPLISEnvironment, ptr %42, i32 0, i32 2
  %44 = load i8, ptr %43, align 8
  call void @transformClassFile(ptr noundef %32, ptr noundef %33, ptr noundef %34, ptr noundef %35, ptr noundef %36, ptr noundef %37, i32 noundef %38, ptr noundef %39, ptr noundef %40, ptr noundef %41, i8 noundef zeroext %44)
  %45 = load ptr, ptr %12, align 8
  %46 = load ptr, ptr %22, align 8
  call void @restoreThrowable(ptr noundef %45, ptr noundef %46)
  br label %47

47:                                               ; preds = %27, %10
  ret void
}