; Function Attrs: nounwind uwtable
define hidden void @eventHandlerClassFileLoadHook(ptr noundef %0, ptr noundef %1, ptr noundef %2, ptr noundef %3, ptr noundef %4, ptr noundef %5, i32 noundef %6, ptr noundef %7, ptr noundef %8, ptr noundef %9) local_unnamed_addr #0 {
  %11 = tail call ptr @getJPLISEnvironment(ptr noundef %0) #15
  %.not = icmp eq ptr %11, null
  br i1 %.not, label %18, label %12

12:                                               ; preds = %10
  %13 = tail call ptr @preserveThrowable(ptr noundef %1) #15
  %14 = getelementptr inbounds i8, ptr %11, i64 8
  %15 = load ptr, ptr %14, align 8
  %16 = getelementptr inbounds i8, ptr %11, i64 16
  %17 = load i8, ptr %16, align 8
  tail call void @transformClassFile(ptr noundef %15, ptr noundef %1, ptr noundef %3, ptr noundef %4, ptr noundef %2, ptr noundef %5, i32 noundef %6, ptr noundef %7, ptr noundef %8, ptr noundef %9, i8 noundef zeroext %17) #15
  tail call void @restoreThrowable(ptr noundef %1, ptr noundef %13) #15
  br label %18

18:                                               ; preds = %12, %10
  ret void
}